; Function Attrs: mustprogress uwtable
define i32 @paramEmpty(ptr noundef readnone captures(none) %0, ptr noundef %1, i32 noundef %2, ptr noundef %3) local_unnamed_addr #1 {
  %5 = load i32, ptr %3, align 4, !tbaa !13
  %6 = icmp slt i32 %5, 1
  br i1 %6, label %7, label %9

7:                                                ; preds = %4
  %8 = tail call i32 @u_terminateChars_77(ptr noundef %1, i32 noundef %2, i32 noundef 0, ptr noundef nonnull %3)
  br label %9

9:                                                ; preds = %4, %7
  %.0 = phi i32 [ %8, %7 ], [ 0, %4 ]
  ret i32 %.0
}